; Function Attrs: mustprogress nofree nounwind willreturn memory(read) uwtable
define hidden noundef nonnull align 8 dereferenceable(16) ptr @_ZN5osgeo4proj9operation9getExtentERKN7dropbox6oxygen2nnISt10shared_ptrINS0_3crs3CRSEEEE(ptr noundef nonnull readonly align 8 captures(none) dereferenceable(16) %0) local_unnamed_addr #10 {
  %2 = load ptr, ptr %0, align 8, !tbaa !42
  %3 = tail call noundef nonnull align 8 dereferenceable(24) ptr @_ZNK5osgeo4proj6common11ObjectUsage7domainsEv(ptr noundef nonnull align 8 dereferenceable(48) %2) #26
  %4 = load ptr, ptr %3, align 8, !tbaa !15
  %5 = getelementptr inbounds nuw i8, ptr %3, i64 8
  %6 = load ptr, ptr %5, align 8, !tbaa !15
  %7 = icmp eq ptr %4, %6
  br i1 %7, label %.lr.ph, label %tailrecurse._crit_edge

tailrecurse._crit_edge:                           ; preds = %tailrecurse, %1
  %.lcssa = phi ptr [ %4, %1 ], [ %16, %tailrecurse ]
  %8 = load ptr, ptr %.lcssa, align 8, !tbaa !22
  %9 = tail call noundef nonnull align 8 dereferenceable(16) ptr @_ZNK5osgeo4proj6common12ObjectDomain16domainOfValidityEv(ptr noundef nonnull align 8 dereferenceable(32) %8) #26
  br label %.thread

.lr.ph:                                           ; preds = %1, %tailrecurse
  %10 = phi ptr [ %14, %tailrecurse ], [ %2, %1 ]
  %11 = load ptr, ptr %10, align 8, !tbaa !34
  %12 = icmp eq ptr %11, getelementptr inbounds nuw inrange(-16, 72) (i8, ptr @_ZTVN5osgeo4proj3crs8BoundCRSE, i64 16)
  br i1 %12, label %tailrecurse, label %.thread

tailrecurse:                                      ; preds = %.lr.ph
  %13 = tail call noundef nonnull align 8 dereferenceable(16) ptr @_ZNK5osgeo4proj3crs8BoundCRS7baseCRSEv(ptr noundef nonnull align 8 dereferenceable(80) %10) #26
  %14 = load ptr, ptr %13, align 8, !tbaa !42
  %15 = tail call noundef nonnull align 8 dereferenceable(24) ptr @_ZNK5osgeo4proj6common11ObjectUsage7domainsEv(ptr noundef nonnull align 8 dereferenceable(48) %14) #26
  %16 = load ptr, ptr %15, align 8, !tbaa !15
  %17 = getelementptr inbounds nuw i8, ptr %15, i64 8
  %18 = load ptr, ptr %17, align 8, !tbaa !15
  %19 = icmp eq ptr %16, %18
  br i1 %19, label %.lr.ph, label %tailrecurse._crit_edge

.thread:                                          ; preds = %.lr.ph, %tailrecurse._crit_edge
  %.0 = phi ptr [ %9, %tailrecurse._crit_edge ], [ @_ZN5osgeo4proj9operationL10nullExtentE, %.lr.ph ]
  ret ptr %.0
}